target datalayout = "e-m:e-p270:32:32-p271:32:32-p272:64:64-i64:64-i128:128-f80:128-n8:16:32:64-S128"
target triple = "x86_64-pc-linux-gnu"

%"struct.llvm::dwarf::FormParams" = type <{ i16, i8, i8, i8, i8 }>
%"struct.std::pair" = type { i16, i16 }
%"class.llvm::DWARFAcceleratorTable" = type { ptr, %"class.llvm::DWARFDataExtractor", %"class.llvm::DataExtractor" }
%"class.llvm::DWARFDataExtractor" = type { %"class.llvm::DataExtractor.base", ptr, ptr }
%"class.llvm::DataExtractor.base" = type <{ %"class.llvm::StringRef", i8, i8 }>
%"class.llvm::StringRef" = type { ptr, i64 }
%"class.llvm::DataExtractor" = type <{ %"class.llvm::StringRef", i8, i8, [6 x i8] }>
%"class.llvm::AppleAcceleratorTable" = type <{ %"class.llvm::DWARFAcceleratorTable", %"struct.llvm::AppleAcceleratorTable::Header", [4 x i8], %"struct.llvm::AppleAcceleratorTable::HeaderData", %"struct.llvm::dwarf::FormParams", [2 x i8], i32, i8, [3 x i8] }>
%"struct.llvm::AppleAcceleratorTable::Header" = type { i32, i16, i16, i32, i32, i32 }
%"struct.llvm::AppleAcceleratorTable::HeaderData" = type { i64, %"class.llvm::SmallVector" }
%"class.llvm::SmallVector" = type <{ %"class.llvm::SmallVectorImpl", %"struct.llvm::SmallVectorStorage", [4 x i8] }>
%"class.llvm::SmallVectorImpl" = type { %"class.llvm::SmallVectorTemplateBase" }
%"class.llvm::SmallVectorTemplateBase" = type { %"class.llvm::SmallVectorTemplateCommon" }
%"class.llvm::SmallVectorTemplateCommon" = type { %"class.llvm::SmallVectorBase" }
%"class.llvm::SmallVectorBase" = type { ptr, i32, i32 }
%"struct.llvm::SmallVectorStorage" = type { [12 x i8] }
%"class.llvm::DWARFFormValue" = type { i16, i8, %"struct.llvm::DWARFFormValue::ValueType", ptr, ptr }
%"struct.llvm::DWARFFormValue::ValueType" = type { %union.anon, ptr, i64 }
%union.anon = type { i64 }
%"class.llvm::SmallVector.26" = type { %"class.llvm::SmallVectorImpl.17", %"struct.llvm::SmallVectorStorage.27" }
%"class.llvm::SmallVectorImpl.17" = type { %"class.llvm::SmallVectorTemplateBase.18" }
%"class.llvm::SmallVectorTemplateBase.18" = type { %"class.llvm::SmallVectorTemplateCommon.19" }
%"class.llvm::SmallVectorTemplateCommon.19" = type { %"class.llvm::SmallVectorBase" }
%"struct.llvm::SmallVectorStorage.27" = type { [144 x i8] }
%"class.llvm::AppleAcceleratorTable::Entry" = type { %"class.llvm::DWARFAcceleratorTable::Entry", ptr }
%"class.llvm::DWARFAcceleratorTable::Entry" = type { ptr, %"class.llvm::SmallVector.26" }

; Function Attrs: mustprogress nounwind uwtable
define linkonce_odr hidden void @_ZN4llvm25SmallVectorTemplateCommonINS_14DWARFFormValueEvEC2Em(ptr noundef nonnull align 8 dereferenceable(16) %0, i64 noundef %1) unnamed_addr #0 comdat align 2 {
  %3 = alloca ptr, align 8
  %4 = alloca i64, align 8
  store ptr %0, ptr %3, align 8
  store i64 %1, ptr %4, align 8
  %5 = load ptr, ptr %3, align 8
  %6 = call noundef ptr @_ZNK4llvm25SmallVectorTemplateCommonINS_14DWARFFormValueEvE10getFirstElEv(ptr noundef nonnull align 8 dereferenceable(16) %5)
  %7 = load i64, ptr %4, align 8
  call void @_ZN4llvm15SmallVectorBaseIjEC2EPvm(ptr noundef nonnull align 8 dereferenceable(16) %5, ptr noundef %6, i64 noundef %7)
  ret void
}

; Function Attrs: mustprogress nounwind uwtable
define linkonce_odr hidden noundef ptr @_ZNK4llvm25SmallVectorTemplateCommonINS_14DWARFFormValueEvE10getFirstElEv(ptr noundef nonnull align 8 dereferenceable(16) %0) #0 comdat align 2 {
  %2 = alloca ptr, align 8
  store ptr %0, ptr %2, align 8
  %3 = load ptr, ptr %2, align 8
  %4 = getelementptr inbounds i8, ptr %3, i64 16
  ret ptr %4
}

; Function Attrs: mustprogress nounwind uwtable
define linkonce_odr hidden void @_ZN4llvm23SmallVectorTemplateBaseINS_14DWARFFormValueELb1EEC2Em(ptr noundef nonnull align 8 dereferenceable(16) %0, i64 noundef %1) unnamed_addr #0 comdat align 2 {
  %3 = alloca ptr, align 8
  %4 = alloca i64, align 8
  store ptr %0, ptr %3, align 8
  store i64 %1, ptr %4, align 8
  %5 = load ptr, ptr %3, align 8
  %6 = load i64, ptr %4, align 8
  call void @_ZN4llvm25SmallVectorTemplateCommonINS_14DWARFFormValueEvEC2Em(ptr noundef nonnull align 8 dereferenceable(16) %5, i64 noundef %6)
  ret void
}

; Function Attrs: mustprogress nounwind uwtable
define linkonce_odr hidden void @_ZN4llvm25SmallVectorTemplateCommonINS_14DWARFFormValueEvE8grow_podEmm(ptr noundef nonnull align 8 dereferenceable(16) %0, i64 noundef %1, i64 noundef %2) #0 comdat align 2 {
  %4 = alloca ptr, align 8
  %5 = alloca i64, align 8
  %6 = alloca i64, align 8
  store ptr %0, ptr %4, align 8
  store i64 %1, ptr %5, align 8
  store i64 %2, ptr %6, align 8
  %7 = load ptr, ptr %4, align 8
  %8 = call noundef ptr @_ZNK4llvm25SmallVectorTemplateCommonINS_14DWARFFormValueEvE10getFirstElEv(ptr noundef nonnull align 8 dereferenceable(16) %7)
  %9 = load i64, ptr %5, align 8
  %10 = load i64, ptr %6, align 8
  call void @_ZN4llvm15SmallVectorBaseIjE8grow_podEPvmm(ptr noundef nonnull align 8 dereferenceable(16) %7, ptr noundef %8, i64 noundef %9, i64 noundef %10)
  ret void
}

; Function Attrs: mustprogress nounwind uwtable
define linkonce_odr hidden void @_ZN4llvm15SmallVectorImplINS_14DWARFFormValueEEC2Ej(ptr noundef nonnull align 8 dereferenceable(16) %0, i32 noundef %1) unnamed_addr #0 comdat align 2 {
  %3 = alloca ptr, align 8
  %4 = alloca i32, align 4
  store ptr %0, ptr %3, align 8
  store i32 %1, ptr %4, align 4
  %5 = load ptr, ptr %3, align 8
  %6 = load i32, ptr %4, align 4
  %7 = zext i32 %6 to i64
  call void @_ZN4llvm23SmallVectorTemplateBaseINS_14DWARFFormValueELb1EEC2Em(ptr noundef nonnull align 8 dereferenceable(16) %5, i64 noundef %7)
  ret void
}

; Function Attrs: mustprogress nounwind uwtable
define linkonce_odr hidden void @_ZN4llvm14DWARFFormValue9ValueTypeC2Ev(ptr noundef nonnull align 8 dereferenceable(24) %0) unnamed_addr #0 comdat align 2 {
  %2 = alloca ptr, align 8
  store ptr %0, ptr %2, align 8
  %3 = load ptr, ptr %2, align 8
  %4 = getelementptr inbounds nuw %"struct.llvm::DWARFFormValue::ValueType", ptr %3, i32 0, i32 1
  store ptr null, ptr %4, align 8
  %5 = getelementptr inbounds nuw %"struct.llvm::DWARFFormValue::ValueType", ptr %3, i32 0, i32 0
  store i64 0, ptr %5, align 8
  ret void
}

; Function Attrs: mustprogress nounwind uwtable
define linkonce_odr hidden void @_ZN4llvm23SmallVectorTemplateBaseINS_14DWARFFormValueELb1EE4growEm(ptr noundef nonnull align 8 dereferenceable(16) %0, i64 noundef %1) #0 comdat align 2 {
  %3 = alloca ptr, align 8
  %4 = alloca i64, align 8
  store ptr %0, ptr %3, align 8
  store i64 %1, ptr %4, align 8
  %5 = load ptr, ptr %3, align 8
  %6 = load i64, ptr %4, align 8
  call void @_ZN4llvm25SmallVectorTemplateCommonINS_14DWARFFormValueEvE8grow_podEmm(ptr noundef nonnull align 8 dereferenceable(16) %5, i64 noundef %6, i64 noundef 48)
  ret void
}

; Function Attrs: mustprogress nounwind uwtable
define linkonce_odr hidden void @_ZN4llvm11SmallVectorINS_14DWARFFormValueELj3EEC2Ev(ptr noundef nonnull align 8 dereferenceable(160) %0) unnamed_addr #0 comdat align 2 {
  %2 = alloca ptr, align 8
  store ptr %0, ptr %2, align 8
  %3 = load ptr, ptr %2, align 8
  call void @_ZN4llvm15SmallVectorImplINS_14DWARFFormValueEEC2Ej(ptr noundef nonnull align 8 dereferenceable(16) %3, i32 noundef 3)
  ret void
}

; Function Attrs: mustprogress nounwind uwtable
define linkonce_odr hidden void @_ZN4llvm14DWARFFormValueC2ENS_5dwarf4FormE(ptr noundef nonnull align 8 dereferenceable(48) %0, i16 noundef zeroext %1) unnamed_addr #0 comdat align 2 {
  %3 = alloca ptr, align 8
  %4 = alloca i16, align 2
  store ptr %0, ptr %3, align 8
  store i16 %1, ptr %4, align 2
  %5 = load ptr, ptr %3, align 8
  %6 = getelementptr inbounds nuw %"class.llvm::DWARFFormValue", ptr %5, i32 0, i32 0
  %7 = load i16, ptr %4, align 2
  store i16 %7, ptr %6, align 8
  %8 = getelementptr inbounds nuw %"class.llvm::DWARFFormValue", ptr %5, i32 0, i32 1
  store i8 0, ptr %8, align 2
  %9 = getelementptr inbounds nuw %"class.llvm::DWARFFormValue", ptr %5, i32 0, i32 2
  call void @_ZN4llvm14DWARFFormValue9ValueTypeC2Ev(ptr noundef nonnull align 8 dereferenceable(24) %9)
  %10 = getelementptr inbounds nuw %"class.llvm::DWARFFormValue", ptr %5, i32 0, i32 3
  store ptr null, ptr %10, align 8
  %11 = getelementptr inbounds nuw %"class.llvm::DWARFFormValue", ptr %5, i32 0, i32 4
  store ptr null, ptr %11, align 8
  ret void
}

; Function Attrs: mustprogress nounwind uwtable
define linkonce_odr hidden noundef ptr @_ZNK4llvm25SmallVectorTemplateCommonISt4pairItNS_5dwarf4FormEEvE3endEv(ptr noundef nonnull align 8 dereferenceable(16) %0) #0 comdat align 2 {
  %2 = alloca ptr, align 8
  store ptr %0, ptr %2, align 8
  %3 = load ptr, ptr %2, align 8
  %4 = call noundef ptr @_ZNK4llvm25SmallVectorTemplateCommonISt4pairItNS_5dwarf4FormEEvE5beginEv(ptr noundef nonnull align 8 dereferenceable(16) %3)
  %5 = call noundef i64 @_ZNK4llvm15SmallVectorBaseIjE4sizeEv(ptr noundef nonnull align 8 dereferenceable(16) %3)
  %6 = getelementptr inbounds %"struct.std::pair", ptr %4, i64 %5
  ret ptr %6
}

; Function Attrs: mustprogress nounwind uwtable
define linkonce_odr hidden noundef ptr @_ZNK4llvm25SmallVectorTemplateCommonISt4pairItNS_5dwarf4FormEEvE5beginEv(ptr noundef nonnull align 8 dereferenceable(16) %0) #0 comdat align 2 {
  %2 = alloca ptr, align 8
  store ptr %0, ptr %2, align 8
  %3 = load ptr, ptr %2, align 8
  %4 = getelementptr inbounds nuw %"class.llvm::SmallVectorBase", ptr %3, i32 0, i32 0
  %5 = load ptr, ptr %4, align 8
  ret ptr %5
}

; Function Attrs: mustprogress nounwind uwtable
define linkonce_odr hidden void @_ZN4llvm15SmallVectorImplINS_14DWARFFormValueEE7reserveEm(ptr noundef nonnull align 8 dereferenceable(16) %0, i64 noundef %1) #0 comdat align 2 {
  %3 = alloca ptr, align 8
  %4 = alloca i64, align 8
  store ptr %0, ptr %3, align 8
  store i64 %1, ptr %4, align 8
  %5 = load ptr, ptr %3, align 8
  %6 = call noundef i64 @_ZNK4llvm15SmallVectorBaseIjE8capacityEv(ptr noundef nonnull align 8 dereferenceable(16) %5)
  %7 = load i64, ptr %4, align 8
  %8 = icmp ult i64 %6, %7
  br i1 %8, label %9, label %11

9:                                                ; preds = %2
  %10 = load i64, ptr %4, align 8
  call void @_ZN4llvm23SmallVectorTemplateBaseINS_14DWARFFormValueELb1EE4growEm(ptr noundef nonnull align 8 dereferenceable(16) %5, i64 noundef %10)
  br label %11

11:                                               ; preds = %9, %2
  ret void
}

; Function Attrs: mustprogress nounwind uwtable
define linkonce_odr hidden void @_ZN4llvm21DWARFAcceleratorTable5EntryC2Ev(ptr noundef nonnull align 8 dereferenceable(168) %0) unnamed_addr #0 comdat align 2 {
  %2 = alloca ptr, align 8
  store ptr %0, ptr %2, align 8
  %3 = load ptr, ptr %2, align 8
  store ptr getelementptr inbounds inrange(-16, 32) ({ [6 x ptr] }, ptr @_ZTVN4llvm21DWARFAcceleratorTable5EntryE, i32 0, i32 0, i32 2), ptr %3, align 8
  %4 = getelementptr inbounds nuw %"class.llvm::DWARFAcceleratorTable::Entry", ptr %3, i32 0, i32 1
  call void @_ZN4llvm11SmallVectorINS_14DWARFFormValueELj3EEC2Ev(ptr noundef nonnull align 8 dereferenceable(160) %4)
  ret void
}

; Function Attrs: mustprogress nounwind uwtable
define dso_local void @_ZN4llvm21AppleAcceleratorTable5EntryC2ERKS0_(ptr noundef nonnull align 8 dereferenceable(176) %0, ptr noundef nonnull align 8 dereferenceable(149) %1) unnamed_addr #0 align 2 {
  %3 = alloca ptr, align 8
  %4 = alloca ptr, align 8
  %5 = alloca ptr, align 8
  %6 = alloca ptr, align 8
  %7 = alloca ptr, align 8
  %8 = alloca ptr, align 8
  %9 = alloca %"class.llvm::DWARFFormValue", align 8
  store ptr %0, ptr %3, align 8
  store ptr %1, ptr %4, align 8
  %10 = load ptr, ptr %3, align 8
  call void @_ZN4llvm21DWARFAcceleratorTable5EntryC2Ev(ptr noundef nonnull align 8 dereferenceable(168) %10)
  store ptr getelementptr inbounds inrange(-16, 32) ({ [6 x ptr] }, ptr @_ZTVN4llvm21AppleAcceleratorTable5EntryE, i32 0, i32 0, i32 2), ptr %10, align 8
  %11 = getelementptr inbounds nuw %"class.llvm::AppleAcceleratorTable::Entry", ptr %10, i32 0, i32 1
  %12 = load ptr, ptr %4, align 8
  store ptr %12, ptr %11, align 8
  %13 = getelementptr inbounds nuw %"class.llvm::DWARFAcceleratorTable::Entry", ptr %10, i32 0, i32 1
  %14 = load ptr, ptr %4, align 8
  %15 = getelementptr inbounds nuw %"class.llvm::AppleAcceleratorTable", ptr %14, i32 0, i32 3
  %16 = getelementptr inbounds nuw %"struct.llvm::AppleAcceleratorTable::HeaderData", ptr %15, i32 0, i32 1
  %17 = call noundef i64 @_ZNK4llvm15SmallVectorBaseIjE4sizeEv(ptr noundef nonnull align 8 dereferenceable(16) %16)
  call void @_ZN4llvm15SmallVectorImplINS_14DWARFFormValueEE7reserveEm(ptr noundef nonnull align 8 dereferenceable(16) %13, i64 noundef %17)
  %18 = load ptr, ptr %4, align 8
  %19 = getelementptr inbounds nuw %"class.llvm::AppleAcceleratorTable", ptr %18, i32 0, i32 3
  %20 = getelementptr inbounds nuw %"struct.llvm::AppleAcceleratorTable::HeaderData", ptr %19, i32 0, i32 1
  store ptr %20, ptr %5, align 8
  %21 = load ptr, ptr %5, align 8
  %22 = call noundef ptr @_ZNK4llvm25SmallVectorTemplateCommonISt4pairItNS_5dwarf4FormEEvE5beginEv(ptr noundef nonnull align 8 dereferenceable(16) %21)
  store ptr %22, ptr %6, align 8
  %23 = load ptr, ptr %5, align 8
  %24 = call noundef ptr @_ZNK4llvm25SmallVectorTemplateCommonISt4pairItNS_5dwarf4FormEEvE3endEv(ptr noundef nonnull align 8 dereferenceable(16) %23)
  store ptr %24, ptr %7, align 8
  br label %25

25:                                               ; preds = %35, %2
  %26 = load ptr, ptr %6, align 8
  %27 = load ptr, ptr %7, align 8
  %28 = icmp ne ptr %26, %27
  br i1 %28, label %29, label %38

29:                                               ; preds = %25
  %30 = load ptr, ptr %6, align 8
  store ptr %30, ptr %8, align 8
  %31 = getelementptr inbounds nuw %"class.llvm::DWARFAcceleratorTable::Entry", ptr %10, i32 0, i32 1
  %32 = load ptr, ptr %8, align 8
  %33 = getelementptr inbounds nuw %"struct.std::pair", ptr %32, i32 0, i32 1
  %34 = load i16, ptr %33, align 2
  call void @_ZN4llvm14DWARFFormValueC2ENS_5dwarf4FormE(ptr noundef nonnull align 8 dereferenceable(48) %9, i16 noundef zeroext %34)
  call void @_ZN4llvm23SmallVectorTemplateBaseINS_14DWARFFormValueELb1EE9push_backERKS1_(ptr noundef nonnull align 8 dereferenceable(16) %31, ptr noundef nonnull align 8 dereferenceable(48) %9)
  br label %35

35:                                               ; preds = %29
  %36 = load ptr, ptr %6, align 8
  %37 = getelementptr inbounds %"struct.std::pair", ptr %36, i32 1
  store ptr %37, ptr %6, align 8
  br label %25

38:                                               ; preds = %25
  ret void
}