; Function Attrs: mustprogress nounwind uwtable
define dso_local void @_ZN4llvm21AppleAcceleratorTable5EntryC2ERKS0_(ptr noundef nonnull align 8 dereferenceable(176) initializes((0, 8)) %0, ptr noundef nonnull align 8 dereferenceable(149) %1) unnamed_addr #3 align 2 {
  %3 = alloca %"class.llvm::DWARFFormValue", align 8
  store ptr getelementptr inbounds nuw inrange(-16, 32) (i8, ptr @_ZTVN4llvm21DWARFAcceleratorTable5EntryE, i64 16), ptr %0, align 8
  %4 = getelementptr inbounds nuw i8, ptr %0, i64 8
  %5 = getelementptr inbounds nuw i8, ptr %0, i64 24
  tail call void @_ZN4llvm15SmallVectorBaseIjEC2EPvm(ptr noundef nonnull align 8 dereferenceable(160) %4, ptr noundef nonnull %5, i64 noundef 3) #27
  store ptr getelementptr inbounds nuw inrange(-16, 32) (i8, ptr @_ZTVN4llvm21AppleAcceleratorTable5EntryE, i64 16), ptr %0, align 8
  %6 = getelementptr inbounds nuw i8, ptr %0, i64 168
  store ptr %1, ptr %6, align 8
  %7 = getelementptr inbounds nuw i8, ptr %1, i64 104
  %8 = tail call noundef i64 @_ZNK4llvm15SmallVectorBaseIjE4sizeEv(ptr noundef nonnull align 8 dereferenceable(16) %7) #27
  %9 = tail call noundef i64 @_ZNK4llvm15SmallVectorBaseIjE8capacityEv(ptr noundef nonnull align 8 dereferenceable(16) %4) #27
  %10 = icmp ult i64 %9, %8
  br i1 %10, label %11, label %_ZN4llvm15SmallVectorImplINS_14DWARFFormValueEE7reserveEm.exit

11:                                               ; preds = %2
  tail call void @_ZN4llvm15SmallVectorBaseIjE8grow_podEPvmm(ptr noundef nonnull align 8 dereferenceable(16) %4, ptr noundef nonnull %5, i64 noundef %8, i64 noundef 48) #27
  br label %_ZN4llvm15SmallVectorImplINS_14DWARFFormValueEE7reserveEm.exit

_ZN4llvm15SmallVectorImplINS_14DWARFFormValueEE7reserveEm.exit: ; preds = %2, %11
  %12 = load ptr, ptr %7, align 8
  %13 = tail call noundef i64 @_ZNK4llvm15SmallVectorBaseIjE4sizeEv(ptr noundef nonnull align 8 dereferenceable(16) %7) #27
  %14 = getelementptr inbounds %"struct.std::pair", ptr %12, i64 %13
  %.not11 = icmp eq i64 %13, 0
  br i1 %.not11, label %._crit_edge, label %.lr.ph

.lr.ph:                                           ; preds = %_ZN4llvm15SmallVectorImplINS_14DWARFFormValueEE7reserveEm.exit
  %15 = getelementptr inbounds nuw i8, ptr %3, i64 2
  %16 = getelementptr inbounds nuw i8, ptr %3, i64 8
  %17 = getelementptr inbounds nuw i8, ptr %3, i64 32
  br label %18

18:                                               ; preds = %.lr.ph, %18
  %.012 = phi ptr [ %12, %.lr.ph ], [ %21, %18 ]
  %19 = getelementptr inbounds nuw i8, ptr %.012, i64 2
  %20 = load i16, ptr %19, align 2
  store i16 %20, ptr %3, align 8
  store i8 0, ptr %15, align 2
  call void @llvm.memset.p0.i64(ptr noundef nonnull align 8 dereferenceable(24) %16, i8 0, i64 16, i1 false)
  call void @llvm.memset.p0.i64(ptr noundef nonnull align 8 dereferenceable(16) %17, i8 0, i64 16, i1 false)
  call void @_ZN4llvm23SmallVectorTemplateBaseINS_14DWARFFormValueELb1EE9push_backERKS1_(ptr noundef nonnull align 8 dereferenceable(16) %4, ptr noundef nonnull align 8 dereferenceable(48) %3)
  %21 = getelementptr inbounds nuw i8, ptr %.012, i64 4
  %.not = icmp eq ptr %21, %14
  br i1 %.not, label %._crit_edge, label %18

._crit_edge:                                      ; preds = %18, %_ZN4llvm15SmallVectorImplINS_14DWARFFormValueEE7reserveEm.exit
  ret void
}